; Function Attrs: nofree norecurse nosync nounwind memory(readwrite, inaccessiblemem: none) uwtable
define range(i32 0, 2) i32 @stbtt_IsGlyphEmpty(ptr noundef readonly captures(none) %0, i32 noundef %1) local_unnamed_addr #13 {
  %3 = alloca %struct.stbtt__csctx, align 8
  %4 = getelementptr inbounds nuw i8, ptr %0, i64 76
  %5 = load i32, ptr %4, align 4, !tbaa !39
  %.not = icmp eq i32 %5, 0
  br i1 %.not, label %12, label %6

6:                                                ; preds = %2
  call void @llvm.lifetime.start.p0(i64 56, ptr nonnull %3) #32
  call void @llvm.memset.p0.i64(ptr noundef nonnull align 8 dereferenceable(56) %3, i8 0, i64 56, i1 false)
  store i32 1, ptr %3, align 8
  %7 = call i32 @stbtt__run_charstring(ptr noundef nonnull readonly %0, i32 noundef %1, ptr noundef nonnull %3)
  %.not24.i = icmp eq i32 %7, 0
  %8 = getelementptr inbounds nuw i8, ptr %3, i64 48
  %9 = load i32, ptr %8, align 8
  call void @llvm.lifetime.end.p0(i64 56, ptr nonnull %3) #32
  %10 = icmp eq i32 %9, 0
  %11 = select i1 %.not24.i, i1 true, i1 %10
  br label %stbtt__GetGlyfOffset.exit.thread

12:                                               ; preds = %2
  %13 = getelementptr inbounds nuw i8, ptr %0, i64 20
  %14 = load i32, ptr %13, align 4, !tbaa !33
  %.not.i = icmp slt i32 %1, %14
  br i1 %.not.i, label %15, label %stbtt__GetGlyfOffset.exit.thread

15:                                               ; preds = %12
  %16 = getelementptr inbounds nuw i8, ptr %0, i64 60
  %17 = load i32, ptr %16, align 4, !tbaa !36
  %18 = icmp sgt i32 %17, 1
  br i1 %18, label %stbtt__GetGlyfOffset.exit.thread, label %19

19:                                               ; preds = %15
  %20 = icmp eq i32 %17, 0
  %21 = getelementptr inbounds nuw i8, ptr %0, i64 32
  %22 = load i32, ptr %21, align 8, !tbaa !27
  %23 = getelementptr inbounds nuw i8, ptr %0, i64 8
  %24 = load ptr, ptr %23, align 8, !tbaa !23
  %25 = getelementptr inbounds nuw i8, ptr %0, i64 24
  %26 = load i32, ptr %25, align 8, !tbaa !25
  %27 = sext i32 %26 to i64
  %28 = getelementptr inbounds i8, ptr %24, i64 %27
  br i1 %20, label %29, label %50

29:                                               ; preds = %19
  %30 = shl nsw i32 %1, 1
  %31 = sext i32 %30 to i64
  %32 = getelementptr inbounds i8, ptr %28, i64 %31
  %33 = load i8, ptr %32, align 1, !tbaa !12
  %34 = zext i8 %33 to i32
  %35 = getelementptr inbounds nuw i8, ptr %32, i64 1
  %36 = load i8, ptr %35, align 1, !tbaa !12
  %37 = zext i8 %36 to i32
  %38 = shl nuw nsw i32 %34, 9
  %39 = shl nuw nsw i32 %37, 1
  %40 = or disjoint i32 %39, %38
  %41 = getelementptr inbounds nuw i8, ptr %32, i64 2
  %42 = load i8, ptr %41, align 1, !tbaa !12
  %43 = zext i8 %42 to i32
  %44 = getelementptr inbounds nuw i8, ptr %32, i64 3
  %45 = load i8, ptr %44, align 1, !tbaa !12
  %46 = zext i8 %45 to i32
  %47 = shl nuw nsw i32 %43, 9
  %48 = shl nuw nsw i32 %46, 1
  %49 = or disjoint i32 %48, %47
  br label %89

50:                                               ; preds = %19
  %51 = shl nsw i32 %1, 2
  %52 = sext i32 %51 to i64
  %53 = getelementptr inbounds i8, ptr %28, i64 %52
  %54 = load i8, ptr %53, align 1, !tbaa !12
  %55 = zext i8 %54 to i32
  %56 = shl nuw i32 %55, 24
  %57 = getelementptr inbounds nuw i8, ptr %53, i64 1
  %58 = load i8, ptr %57, align 1, !tbaa !12
  %59 = zext i8 %58 to i32
  %60 = shl nuw nsw i32 %59, 16
  %61 = or disjoint i32 %60, %56
  %62 = getelementptr inbounds nuw i8, ptr %53, i64 2
  %63 = load i8, ptr %62, align 1, !tbaa !12
  %64 = zext i8 %63 to i32
  %65 = shl nuw nsw i32 %64, 8
  %66 = or disjoint i32 %61, %65
  %67 = getelementptr inbounds nuw i8, ptr %53, i64 3
  %68 = load i8, ptr %67, align 1, !tbaa !12
  %69 = zext i8 %68 to i32
  %70 = or disjoint i32 %66, %69
  %71 = getelementptr inbounds nuw i8, ptr %53, i64 4
  %72 = load i8, ptr %71, align 1, !tbaa !12
  %73 = zext i8 %72 to i32
  %74 = shl nuw i32 %73, 24
  %75 = getelementptr inbounds nuw i8, ptr %53, i64 5
  %76 = load i8, ptr %75, align 1, !tbaa !12
  %77 = zext i8 %76 to i32
  %78 = shl nuw nsw i32 %77, 16
  %79 = or disjoint i32 %78, %74
  %80 = getelementptr inbounds nuw i8, ptr %53, i64 6
  %81 = load i8, ptr %80, align 1, !tbaa !12
  %82 = zext i8 %81 to i32
  %83 = shl nuw nsw i32 %82, 8
  %84 = or disjoint i32 %79, %83
  %85 = getelementptr inbounds nuw i8, ptr %53, i64 7
  %86 = load i8, ptr %85, align 1, !tbaa !12
  %87 = zext i8 %86 to i32
  %88 = or disjoint i32 %84, %87
  br label %89

89:                                               ; preds = %50, %29
  %.sink.i = phi i32 [ %88, %50 ], [ %49, %29 ]
  %.pn.i = phi i32 [ %70, %50 ], [ %40, %29 ]
  %.023.i = add i32 %.pn.i, %22
  %90 = icmp eq i32 %.pn.i, %.sink.i
  %91 = icmp slt i32 %.023.i, 0
  %or.cond = select i1 %90, i1 true, i1 %91
  br i1 %or.cond, label %stbtt__GetGlyfOffset.exit.thread, label %92

92:                                               ; preds = %89
  %93 = zext nneg i32 %.023.i to i64
  %94 = getelementptr inbounds nuw i8, ptr %24, i64 %93
  %95 = load i8, ptr %94, align 1, !tbaa !12
  %96 = zext i8 %95 to i16
  %97 = shl nuw i16 %96, 8
  %98 = getelementptr inbounds nuw i8, ptr %94, i64 1
  %99 = load i8, ptr %98, align 1, !tbaa !12
  %100 = zext i8 %99 to i16
  %101 = or disjoint i16 %97, %100
  %102 = icmp eq i16 %101, 0
  br label %stbtt__GetGlyfOffset.exit.thread

stbtt__GetGlyfOffset.exit.thread:                 ; preds = %89, %15, %12, %92, %6
  %.0.shrunk = phi i1 [ %11, %6 ], [ %102, %92 ], [ true, %12 ], [ true, %15 ], [ true, %89 ]
  %.0 = zext i1 %.0.shrunk to i32
  ret i32 %.0
}